target datalayout = "e-m:e-p270:32:32-p271:32:32-p272:64:64-i64:64-i128:128-f80:128-n8:16:32:64-S128"
target triple = "x86_64-pc-linux-gnu"

; Function Attrs: mustprogress nounwind uwtable
define internal noundef i32 @_ZN11duckdb_zstdL11ERR_isErrorEm(i64 noundef %0) #3 {
  %2 = alloca i64, align 8
  store i64 %0, ptr %2, align 8, !tbaa !9
  %3 = load i64, ptr %2, align 8, !tbaa !9
  %4 = icmp ugt i64 %3, -120
  %5 = zext i1 %4 to i32
  ret i32 %5
}

; Function Attrs: mustprogress uwtable
define noundef i64 @_ZN11duckdb_zstd27HUF_decompress1X2_DCtx_wkspEPjPvmPKvmS1_mi(ptr noundef %0, ptr noundef %1, i64 noundef %2, ptr noundef %3, i64 noundef %4, ptr noundef %5, i64 noundef %6, i32 noundef %7) #0 {
  %9 = alloca i64, align 8
  %10 = alloca ptr, align 8
  %11 = alloca ptr, align 8
  %12 = alloca i64, align 8
  %13 = alloca ptr, align 8
  %14 = alloca i64, align 8
  %15 = alloca ptr, align 8
  %16 = alloca i64, align 8
  %17 = alloca i32, align 4
  %18 = alloca ptr, align 8
  %19 = alloca i64, align 8
  %20 = alloca i32, align 4
  store ptr %0, ptr %10, align 8, !tbaa !3
  store ptr %1, ptr %11, align 8, !tbaa !8
  store i64 %2, ptr %12, align 8, !tbaa !9
  store ptr %3, ptr %13, align 8, !tbaa !8
  store i64 %4, ptr %14, align 8, !tbaa !9
  store ptr %5, ptr %15, align 8, !tbaa !8
  store i64 %6, ptr %16, align 8, !tbaa !9
  store i32 %7, ptr %17, align 4, !tbaa !11
  call void @llvm.lifetime.start.p0(i64 8, ptr %18) #14
  %21 = load ptr, ptr %13, align 8, !tbaa !8
  store ptr %21, ptr %18, align 8, !tbaa !34
  call void @llvm.lifetime.start.p0(i64 8, ptr %19) #14
  %22 = load ptr, ptr %10, align 8, !tbaa !3
  %23 = load ptr, ptr %13, align 8, !tbaa !8
  %24 = load i64, ptr %14, align 8, !tbaa !9
  %25 = load ptr, ptr %15, align 8, !tbaa !8
  %26 = load i64, ptr %16, align 8, !tbaa !9
  %27 = load i32, ptr %17, align 4, !tbaa !11
  %28 = call noundef i64 @_ZN11duckdb_zstd21HUF_readDTableX2_wkspEPjPKvmPvmi(ptr noundef %22, ptr noundef %23, i64 noundef %24, ptr noundef %25, i64 noundef %26, i32 noundef %27)
  store i64 %28, ptr %19, align 8, !tbaa !9
  %29 = load i64, ptr %19, align 8, !tbaa !9
  %30 = call noundef i32 @_ZN11duckdb_zstdL11ERR_isErrorEm(i64 noundef %29)
  %31 = icmp ne i32 %30, 0
  br i1 %31, label %32, label %34

32:                                               ; preds = %8
  %33 = load i64, ptr %19, align 8, !tbaa !9
  store i64 %33, ptr %9, align 8
  store i32 1, ptr %20, align 4
  br label %53

34:                                               ; preds = %8
  %35 = load i64, ptr %19, align 8, !tbaa !9
  %36 = load i64, ptr %14, align 8, !tbaa !9
  %37 = icmp uge i64 %35, %36
  br i1 %37, label %38, label %39

38:                                               ; preds = %34
  store i64 -72, ptr %9, align 8
  store i32 1, ptr %20, align 4
  br label %53

39:                                               ; preds = %34
  %40 = load i64, ptr %19, align 8, !tbaa !9
  %41 = load ptr, ptr %18, align 8, !tbaa !34
  %42 = getelementptr inbounds nuw i8, ptr %41, i64 %40
  store ptr %42, ptr %18, align 8, !tbaa !34
  %43 = load i64, ptr %19, align 8, !tbaa !9
  %44 = load i64, ptr %14, align 8, !tbaa !9
  %45 = sub i64 %44, %43
  store i64 %45, ptr %14, align 8, !tbaa !9
  %46 = load ptr, ptr %11, align 8, !tbaa !8
  %47 = load i64, ptr %12, align 8, !tbaa !9
  %48 = load ptr, ptr %18, align 8, !tbaa !34
  %49 = load i64, ptr %14, align 8, !tbaa !9
  %50 = load ptr, ptr %10, align 8, !tbaa !3
  %51 = load i32, ptr %17, align 4, !tbaa !11
  %52 = call noundef i64 @_ZN11duckdb_zstdL38HUF_decompress1X2_usingDTable_internalEPvmPKvmPKji(ptr noundef %46, i64 noundef %47, ptr noundef %48, i64 noundef %49, ptr noundef %50, i32 noundef %51)
  store i64 %52, ptr %9, align 8
  store i32 1, ptr %20, align 4
  br label %53

53:                                               ; preds = %39, %38, %32
  call void @llvm.lifetime.end.p0(i64 8, ptr %19) #14
  call void @llvm.lifetime.end.p0(i64 8, ptr %18) #14
  %54 = load i64, ptr %9, align 8
  ret i64 %54
}